target datalayout = "e-m:e-p270:32:32-p271:32:32-p272:64:64-i64:64-i128:128-f80:128-n8:16:32:64-S128"
target triple = "x86_64-pc-linux-gnu"

%struct.AVPacket = type { ptr, i64, i64, ptr, i32, i32, i32, ptr, i32, i64, i64, ptr, ptr, %struct.AVRational }
%struct.AVRational = type { i32, i32 }
%struct.AVFormatContext = type { ptr, ptr, ptr, ptr, ptr, i32, i32, ptr, i32, ptr, i32, ptr, ptr, i64, i64, i64, i32, i32, i32, i64, i64, ptr, i32, i32, ptr, i32, i32, i32, i32, ptr, i64, i32, i32, %struct.AVIOInterruptCB, i32, i32, i32, i32, i64, i32, i32, i32, i32, i32, i32, i32, i32, i32, i32, i32, i32, i64, i32, i32, i32, i32, i32, ptr, ptr, ptr, ptr, i32, ptr, ptr, ptr, ptr, i32, ptr, ptr, i64, ptr, ptr, ptr, i64 }
%struct.AVIOInterruptCB = type { ptr, ptr }

@.str.2 = private unnamed_addr constant [23 x i8] c"failed to grow packet\0A\00", align 1
@.str.3 = private unnamed_addr constant [39 x i8] c"Truncated packet! Read %d of %d bytes\0A\00", align 1

; Function Attrs: nounwind uwtable
define internal i32 @read_packet(ptr noundef %0, ptr noundef %1) #0 {
  %3 = alloca i32, align 4
  %4 = alloca ptr, align 8
  %5 = alloca ptr, align 8
  %6 = alloca i32, align 4
  %7 = alloca i32, align 4
  %8 = alloca i32, align 4
  %9 = alloca i32, align 4
  %10 = alloca i32, align 4
  %11 = alloca i32, align 4
  %12 = alloca i32, align 4
  %13 = alloca i32, align 4
  store ptr %0, ptr %4, align 8, !tbaa !14
  store ptr %1, ptr %5, align 8, !tbaa !43
  call void @llvm.lifetime.start.p0(i64 4, ptr %6) #4
  call void @llvm.lifetime.start.p0(i64 4, ptr %7) #4
  call void @llvm.lifetime.start.p0(i64 4, ptr %8) #4
  call void @llvm.lifetime.start.p0(i64 4, ptr %9) #4
  call void @llvm.lifetime.start.p0(i64 4, ptr %10) #4
  call void @llvm.lifetime.start.p0(i64 4, ptr %11) #4
  store i32 0, ptr %11, align 4, !tbaa !45
  call void @llvm.lifetime.start.p0(i64 4, ptr %12) #4
  store i32 0, ptr %12, align 4, !tbaa !45
  br label %14

14:                                               ; preds = %108, %53, %2
  %15 = load i32, ptr %12, align 4, !tbaa !45
  %16 = icmp ne i32 %15, 0
  %17 = xor i1 %16, true
  br i1 %17, label %18, label %109

18:                                               ; preds = %14
  %19 = load ptr, ptr %4, align 8, !tbaa !14
  %20 = getelementptr inbounds nuw %struct.AVFormatContext, ptr %19, i32 0, i32 4
  %21 = load ptr, ptr %20, align 8, !tbaa !46
  %22 = call i32 @avio_rb16(ptr noundef %21)
  store i32 %22, ptr %9, align 4, !tbaa !45
  %23 = load ptr, ptr %4, align 8, !tbaa !14
  %24 = getelementptr inbounds nuw %struct.AVFormatContext, ptr %23, i32 0, i32 4
  %25 = load ptr, ptr %24, align 8, !tbaa !46
  %26 = call i32 @avio_rb16(ptr noundef %25)
  store i32 %26, ptr %7, align 4, !tbaa !45
  %27 = load ptr, ptr %4, align 8, !tbaa !14
  %28 = getelementptr inbounds nuw %struct.AVFormatContext, ptr %27, i32 0, i32 4
  %29 = load ptr, ptr %28, align 8, !tbaa !46
  %30 = call i32 @avio_rb16(ptr noundef %29)
  store i32 %30, ptr %10, align 4, !tbaa !45
  %31 = load ptr, ptr %4, align 8, !tbaa !14
  %32 = getelementptr inbounds nuw %struct.AVFormatContext, ptr %31, i32 0, i32 4
  %33 = load ptr, ptr %32, align 8, !tbaa !46
  %34 = call i32 @avio_rb16(ptr noundef %33)
  %35 = load ptr, ptr %4, align 8, !tbaa !14
  %36 = getelementptr inbounds nuw %struct.AVFormatContext, ptr %35, i32 0, i32 4
  %37 = load ptr, ptr %36, align 8, !tbaa !46
  %38 = call i32 @avio_rb32(ptr noundef %37)
  store i32 %38, ptr %8, align 4, !tbaa !45
  %39 = load ptr, ptr %4, align 8, !tbaa !14
  %40 = getelementptr inbounds nuw %struct.AVFormatContext, ptr %39, i32 0, i32 4
  %41 = load ptr, ptr %40, align 8, !tbaa !46
  %42 = call i32 @avio_rb32(ptr noundef %41)
  %43 = load i32, ptr %10, align 4, !tbaa !45
  %44 = and i32 %43, 128
  store i32 %44, ptr %12, align 4, !tbaa !45
  %45 = load i32, ptr %7, align 4, !tbaa !45
  %46 = sub nsw i32 %45, 12
  store i32 %46, ptr %7, align 4, !tbaa !45
  %47 = load i32, ptr %7, align 4, !tbaa !45
  %48 = icmp slt i32 %47, 1
  br i1 %48, label %49, label %50

49:                                               ; preds = %18
  store i32 -1, ptr %3, align 4
  store i32 1, ptr %13, align 4
  br label %112

50:                                               ; preds = %18
  %51 = load i32, ptr %9, align 4, !tbaa !45
  %52 = icmp eq i32 %51, 258
  br i1 %52, label %53, label %60

53:                                               ; preds = %50
  %54 = load ptr, ptr %4, align 8, !tbaa !14
  %55 = getelementptr inbounds nuw %struct.AVFormatContext, ptr %54, i32 0, i32 4
  %56 = load ptr, ptr %55, align 8, !tbaa !46
  %57 = load i32, ptr %7, align 4, !tbaa !45
  %58 = sext i32 %57 to i64
  %59 = call i64 @avio_skip(ptr noundef %56, i64 noundef %58)
  store i32 0, ptr %12, align 4, !tbaa !45
  br label %14, !llvm.loop !58

60:                                               ; preds = %50
  %61 = load i32, ptr %11, align 4, !tbaa !45
  %62 = icmp ne i32 %61, 0
  br i1 %62, label %83, label %63

63:                                               ; preds = %60
  %64 = load ptr, ptr %4, align 8, !tbaa !14
  %65 = getelementptr inbounds nuw %struct.AVFormatContext, ptr %64, i32 0, i32 4
  %66 = load ptr, ptr %65, align 8, !tbaa !46
  %67 = load ptr, ptr %5, align 8, !tbaa !43
  %68 = load i32, ptr %7, align 4, !tbaa !45
  %69 = call i32 @av_get_packet(ptr noundef %66, ptr noundef %67, i32 noundef %68)
  store i32 %69, ptr %6, align 4, !tbaa !45
  %70 = load i32, ptr %6, align 4, !tbaa !45
  %71 = icmp slt i32 %70, 0
  br i1 %71, label %72, label %74

72:                                               ; preds = %63
  %73 = load i32, ptr %6, align 4, !tbaa !45
  store i32 %73, ptr %3, align 4
  store i32 1, ptr %13, align 4
  br label %112

74:                                               ; preds = %63
  store i32 1, ptr %11, align 4, !tbaa !45
  %75 = load i32, ptr %8, align 4, !tbaa !45
  %76 = sext i32 %75 to i64
  %77 = load ptr, ptr %5, align 8, !tbaa !43
  %78 = getelementptr inbounds nuw %struct.AVPacket, ptr %77, i32 0, i32 1
  store i64 %76, ptr %78, align 8, !tbaa !60
  %79 = load ptr, ptr %5, align 8, !tbaa !43
  %80 = getelementptr inbounds nuw %struct.AVPacket, ptr %79, i32 0, i32 10
  %81 = load i64, ptr %80, align 8, !tbaa !61
  %82 = sub nsw i64 %81, 16
  store i64 %82, ptr %80, align 8, !tbaa !61
  br label %96

83:                                               ; preds = %60
  %84 = load ptr, ptr %4, align 8, !tbaa !14
  %85 = getelementptr inbounds nuw %struct.AVFormatContext, ptr %84, i32 0, i32 4
  %86 = load ptr, ptr %85, align 8, !tbaa !46
  %87 = load ptr, ptr %5, align 8, !tbaa !43
  %88 = load i32, ptr %7, align 4, !tbaa !45
  %89 = call i32 @av_append_packet(ptr noundef %86, ptr noundef %87, i32 noundef %88)
  store i32 %89, ptr %6, align 4, !tbaa !45
  %90 = load i32, ptr %6, align 4, !tbaa !45
  %91 = icmp slt i32 %90, 0
  br i1 %91, label %92, label %95

92:                                               ; preds = %83
  %93 = load ptr, ptr %4, align 8, !tbaa !14
  call void (ptr, i32, ptr, ...) @av_log(ptr noundef %93, i32 noundef 16, ptr noundef @.str.2)
  %94 = load i32, ptr %6, align 4, !tbaa !45
  store i32 %94, ptr %3, align 4
  store i32 1, ptr %13, align 4
  br label %112

95:                                               ; preds = %83
  br label %96

96:                                               ; preds = %95, %74
  %97 = load i32, ptr %6, align 4, !tbaa !45
  %98 = load i32, ptr %7, align 4, !tbaa !45
  %99 = icmp slt i32 %97, %98
  br i1 %99, label %100, label %108

100:                                              ; preds = %96
  %101 = load ptr, ptr %4, align 8, !tbaa !14
  %102 = load i32, ptr %6, align 4, !tbaa !45
  %103 = load i32, ptr %7, align 4, !tbaa !45
  call void (ptr, i32, ptr, ...) @av_log(ptr noundef %101, i32 noundef 16, ptr noundef @.str.3, i32 noundef %102, i32 noundef %103)
  %104 = load ptr, ptr %5, align 8, !tbaa !43
  %105 = getelementptr inbounds nuw %struct.AVPacket, ptr %104, i32 0, i32 6
  %106 = load i32, ptr %105, align 8, !tbaa !62
  %107 = or i32 %106, 2
  store i32 %107, ptr %105, align 8, !tbaa !62
  br label %109

108:                                              ; preds = %96
  br label %14, !llvm.loop !58

109:                                              ; preds = %100, %14
  %110 = load ptr, ptr %5, align 8, !tbaa !43
  %111 = getelementptr inbounds nuw %struct.AVPacket, ptr %110, i32 0, i32 5
  store i32 0, ptr %111, align 4, !tbaa !63
  store i32 0, ptr %3, align 4
  store i32 1, ptr %13, align 4
  br label %112

112:                                              ; preds = %109, %92, %72, %49
  call void @llvm.lifetime.end.p0(i64 4, ptr %12) #4
  call void @llvm.lifetime.end.p0(i64 4, ptr %11) #4
  call void @llvm.lifetime.end.p0(i64 4, ptr %10) #4
  call void @llvm.lifetime.end.p0(i64 4, ptr %9) #4
  call void @llvm.lifetime.end.p0(i64 4, ptr %8) #4
  call void @llvm.lifetime.end.p0(i64 4, ptr %7) #4
  call void @llvm.lifetime.end.p0(i64 4, ptr %6) #4
  %113 = load i32, ptr %3, align 4
  ret i32 %113
}