; Function Attrs: nounwind uwtable
define internal range(i32 -2147483648, 1) i32 @read_packet(ptr noundef %0, ptr noundef %1) #1 {
  %3 = getelementptr inbounds nuw i8, ptr %0, i64 32
  %4 = getelementptr inbounds nuw i8, ptr %1, i64 8
  %5 = getelementptr inbounds nuw i8, ptr %1, i64 72
  br label %.outer

.outer:                                           ; preds = %39, %2
  %.not43 = phi i1 [ false, %39 ], [ true, %2 ]
  %.0.ph = phi i32 [ %26, %39 ], [ 0, %2 ]
  %.not57 = icmp eq i32 %.0.ph, 0
  br i1 %.not57, label %.lr.ph.split.us, label %.loopexit

.lr.ph.split.us:                                  ; preds = %.outer, %22
  %6 = load ptr, ptr %3, align 8, !tbaa !38
  %7 = tail call i32 @avio_rb16(ptr noundef %6) #3
  %8 = load ptr, ptr %3, align 8, !tbaa !38
  %9 = tail call i32 @avio_rb16(ptr noundef %8) #3
  %10 = load ptr, ptr %3, align 8, !tbaa !38
  %11 = tail call i32 @avio_rb16(ptr noundef %10) #3
  %12 = load ptr, ptr %3, align 8, !tbaa !38
  %13 = tail call i32 @avio_rb16(ptr noundef %12) #3
  %14 = load ptr, ptr %3, align 8, !tbaa !38
  %15 = tail call i32 @avio_rb32(ptr noundef %14) #3
  %16 = load ptr, ptr %3, align 8, !tbaa !38
  %17 = tail call i32 @avio_rb32(ptr noundef %16) #3
  %18 = add nsw i32 %9, -12
  %19 = icmp slt i32 %9, 13
  br i1 %19, label %.loopexit44, label %20

20:                                               ; preds = %.lr.ph.split.us
  %21 = icmp eq i32 %7, 258
  br i1 %21, label %22, label %.split.us

22:                                               ; preds = %20
  %23 = load ptr, ptr %3, align 8, !tbaa !38
  %24 = zext nneg i32 %18 to i64
  %25 = tail call i64 @avio_skip(ptr noundef %23, i64 noundef %24) #3
  br label %.lr.ph.split.us

.split.us:                                        ; preds = %20
  %26 = and i32 %11, 128
  %27 = load ptr, ptr %3, align 8, !tbaa !38
  br i1 %.not43, label %28, label %35

28:                                               ; preds = %.split.us
  %29 = tail call i32 @av_get_packet(ptr noundef %27, ptr noundef %1, i32 noundef %18) #3
  %30 = icmp slt i32 %29, 0
  br i1 %30, label %.loopexit44, label %31

31:                                               ; preds = %28
  %32 = sext i32 %15 to i64
  store i64 %32, ptr %4, align 8, !tbaa !50
  %33 = load i64, ptr %5, align 8, !tbaa !51
  %34 = add nsw i64 %33, -16
  store i64 %34, ptr %5, align 8, !tbaa !51
  br label %39

35:                                               ; preds = %.split.us
  %36 = tail call i32 @av_append_packet(ptr noundef %27, ptr noundef %1, i32 noundef %18) #3
  %37 = icmp slt i32 %36, 0
  br i1 %37, label %38, label %39

38:                                               ; preds = %35
  tail call void (ptr, i32, ptr, ...) @av_log(ptr noundef nonnull %0, i32 noundef 16, ptr noundef nonnull @.str.2) #3
  br label %.loopexit44

39:                                               ; preds = %35, %31
  %.037 = phi i32 [ %36, %35 ], [ %29, %31 ]
  %40 = icmp samesign ult i32 %.037, %18
  br i1 %40, label %41, label %.outer, !llvm.loop !52

41:                                               ; preds = %39
  tail call void (ptr, i32, ptr, ...) @av_log(ptr noundef nonnull %0, i32 noundef 16, ptr noundef nonnull @.str.3, i32 noundef %.037, i32 noundef %18) #3
  %42 = getelementptr inbounds nuw i8, ptr %1, i64 40
  %43 = load i32, ptr %42, align 8, !tbaa !54
  %44 = or i32 %43, 2
  store i32 %44, ptr %42, align 8, !tbaa !54
  br label %.loopexit

.loopexit:                                        ; preds = %.outer, %41
  %45 = getelementptr inbounds nuw i8, ptr %1, i64 36
  store i32 0, ptr %45, align 4, !tbaa !55
  br label %.loopexit44

.loopexit44:                                      ; preds = %28, %.lr.ph.split.us, %.loopexit, %38
  %.036 = phi i32 [ %36, %38 ], [ 0, %.loopexit ], [ -1, %.lr.ph.split.us ], [ %29, %28 ]
  ret i32 %.036
}